; ModuleID = '62/66.c'
source_filename = "62/66.c"
target datalayout = "e-m:e-p270:32:32-p271:32:32-p272:64:64-i64:64-f80:128-n8:16:32:64-S128"
target triple = "x86_64-pc-linux-gnu"

; Function Attrs: noinline nounwind uwtable
define dso_local i32 @main() #0 {
  %1 = alloca i32, align 4
  %2 = alloca [100 x i8], align 16
  %3 = alloca [100 x [100 x i8]], align 16
  %4 = alloca i32, align 4
  %5 = alloca i32, align 4
  %6 = alloca i32, align 4
  %7 = alloca i32, align 4
  store i32 0, i32* %1, align 4
  %8 = bitcast [100 x i8]* %2 to i8*
  call void @llvm.memset.p0i8.i64(i8* align 16 %8, i8 0, i64 100, i1 false)
  %9 = bitcast [100 x [100 x i8]]* %3 to i8*
  call void @llvm.memset.p0i8.i64(i8* align 16 %9, i8 0, i64 10000, i1 false)
  %10 = getelementptr inbounds [100 x i8], [100 x i8]* %2, i64 0, i64 0
  %11 = call i32 (i8*, ...) bitcast (i32 (...)* @gets to i32 (i8*, ...)*)(i8* %10)
  %12 = getelementptr inbounds [100 x i8], [100 x i8]* %2, i64 0, i64 0
  %13 = call i64 @strlen(i8* %12) #4
  %14 = sub i64 %13, 1
  %15 = trunc i64 %14 to i32
  store i32 %15, i32* %5, align 4
  %16 = getelementptr inbounds [100 x i8], [100 x i8]* %2, i64 0, i64 0
  %17 = load i8, i8* %16, align 16
  %18 = getelementptr inbounds [100 x [100 x i8]], [100 x [100 x i8]]* %3, i64 0, i64 0
  %19 = getelementptr inbounds [100 x i8], [100 x i8]* %18, i64 0, i64 0
  store i8 %17, i8* %19, align 16
  store i32 0, i32* %4, align 4
  store i32 0, i32* %7, align 4
  store i32 1, i32* %6, align 4
  br label %20

20:                                               ; preds = %63, %0
  %21 = load i32, i32* %4, align 4
  %22 = load i32, i32* %5, align 4
  %23 = icmp sle i32 %21, %22
  br i1 %23, label %24, label %68

24:                                               ; preds = %20
  %25 = load i32, i32* %4, align 4
  %26 = sext i32 %25 to i64
  %27 = getelementptr inbounds [100 x i8], [100 x i8]* %2, i64 0, i64 %26
  %28 = load i8, i8* %27, align 1
  %29 = sext i8 %28 to i32
  %30 = icmp eq i32 %29, 32
  br i1 %30, label %31, label %42

31:                                               ; preds = %24
  %32 = load i32, i32* %4, align 4
  %33 = add nsw i32 %32, 1
  %34 = sext i32 %33 to i64
  %35 = getelementptr inbounds [100 x i8], [100 x i8]* %2, i64 0, i64 %34
  %36 = load i8, i8* %35, align 1
  %37 = sext i8 %36 to i32
  %38 = icmp ne i32 %37, 32
  br i1 %38, label %39, label %42

39:                                               ; preds = %31
  %40 = load i32, i32* %7, align 4
  %41 = add nsw i32 %40, 1
  store i32 %41, i32* %7, align 4
  store i32 0, i32* %6, align 4
  br label %42

42:                                               ; preds = %39, %31, %24
  %43 = load i32, i32* %4, align 4
  %44 = add nsw i32 %43, 1
  %45 = sext i32 %44 to i64
  %46 = getelementptr inbounds [100 x i8], [100 x i8]* %2, i64 0, i64 %45
  %47 = load i8, i8* %46, align 1
  %48 = sext i8 %47 to i32
  %49 = icmp ne i32 %48, 32
  br i1 %49, label %50, label %62

50:                                               ; preds = %42
  %51 = load i32, i32* %4, align 4
  %52 = add nsw i32 %51, 1
  %53 = sext i32 %52 to i64
  %54 = getelementptr inbounds [100 x i8], [100 x i8]* %2, i64 0, i64 %53
  %55 = load i8, i8* %54, align 1
  %56 = load i32, i32* %7, align 4
  %57 = sext i32 %56 to i64
  %58 = getelementptr inbounds [100 x [100 x i8]], [100 x [100 x i8]]* %3, i64 0, i64 %57
  %59 = load i32, i32* %6, align 4
  %60 = sext i32 %59 to i64
  %61 = getelementptr inbounds [100 x i8], [100 x i8]* %58, i64 0, i64 %60
  store i8 %55, i8* %61, align 1
  br label %62

62:                                               ; preds = %50, %42
  br label %63

63:                                               ; preds = %62
  %64 = load i32, i32* %4, align 4
  %65 = add nsw i32 %64, 1
  store i32 %65, i32* %4, align 4
  %66 = load i32, i32* %6, align 4
  %67 = add nsw i32 %66, 1
  store i32 %67, i32* %6, align 4
  br label %20

68:                                               ; preds = %20
  store i32 0, i32* %4, align 4
  br label %69

69:                                               ; preds = %104, %68
  %70 = load i32, i32* %4, align 4
  %71 = load i32, i32* %7, align 4
  %72 = icmp sle i32 %70, %71
  br i1 %72, label %73, label %107

73:                                               ; preds = %69
  store i32 0, i32* %6, align 4
  br label %74

74:                                               ; preds = %94, %73
  %75 = load i32, i32* %6, align 4
  %76 = sext i32 %75 to i64
  %77 = load i32, i32* %4, align 4
  %78 = sext i32 %77 to i64
  %79 = getelementptr inbounds [100 x [100 x i8]], [100 x [100 x i8]]* %3, i64 0, i64 %78
  %80 = getelementptr inbounds [100 x i8], [100 x i8]* %79, i64 0, i64 0
  %81 = call i64 @strlen(i8* %80) #4
  %82 = sub i64 %81, 1
  %83 = icmp ule i64 %76, %82
  br i1 %83, label %84, label %97

84:                                               ; preds = %74
  %85 = load i32, i32* %4, align 4
  %86 = sext i32 %85 to i64
  %87 = getelementptr inbounds [100 x [100 x i8]], [100 x [100 x i8]]* %3, i64 0, i64 %86
  %88 = load i32, i32* %6, align 4
  %89 = sext i32 %88 to i64
  %90 = getelementptr inbounds [100 x i8], [100 x i8]* %87, i64 0, i64 %89
  %91 = load i8, i8* %90, align 1
  %92 = sext i8 %91 to i32
  %93 = call i32 @putchar(i32 %92)
  br label %94

94:                                               ; preds = %84
  %95 = load i32, i32* %6, align 4
  %96 = add nsw i32 %95, 1
  store i32 %96, i32* %6, align 4
  br label %74

97:                                               ; preds = %74
  %98 = load i32, i32* %4, align 4
  %99 = load i32, i32* %7, align 4
  %100 = icmp ne i32 %98, %99
  br i1 %100, label %101, label %103

101:                                              ; preds = %97
  %102 = call i32 @putchar(i32 32)
  br label %103

103:                                              ; preds = %101, %97
  br label %104

104:                                              ; preds = %103
  %105 = load i32, i32* %4, align 4
  %106 = add nsw i32 %105, 1
  store i32 %106, i32* %4, align 4
  br label %69

107:                                              ; preds = %69
  %108 = load i32, i32* %1, align 4
  ret i32 %108
}

; Function Attrs: argmemonly nounwind willreturn
declare void @llvm.memset.p0i8.i64(i8* nocapture writeonly, i8, i64, i1 immarg) #1

declare dso_local i32 @gets(...) #2

; Function Attrs: nounwind readonly
declare dso_local i64 @strlen(i8*) #3

declare dso_local i32 @putchar(i32) #2


!llvm.module.flags = !{!0}
!llvm.ident = !{!1}

!0 = !{i32 1, !"wchar_size", i32 4}
!1 = !{!"clang version 10.0.0-4ubuntu1 "}
